target datalayout = "e-m:e-p270:32:32-p271:32:32-p272:64:64-i64:64-i128:128-f80:128-n8:16:32:64-S128"
target triple = "x86_64-pc-linux-gnu"

%struct.slurmdbd_conf_t = type { ptr, ptr, i16, ptr, ptr, ptr, i16, i16, ptr, i32, ptr, i32, ptr, i16, ptr, i32, i32, i32, i32, i32, i32, i32, ptr, i16, i16, i16 }

@plugin_type = external constant [0 x i8], align 1
@slurmdbd_conf = dso_local global ptr null, align 8
@.str.23 = private unnamed_addr constant [14 x i8] c"slurm_acct_db\00", align 1
@.str.24 = private unnamed_addr constant [54 x i8] c"%s: %s: %s doesn't look like a database name using %s\00", align 1
@__func__.acct_get_db_name = private unnamed_addr constant [17 x i8] c"acct_get_db_name\00", align 1

; Function Attrs: nounwind uwtable
define dso_local ptr @acct_get_db_name() #0 {
  %1 = alloca ptr, align 8
  %2 = alloca ptr, align 8
  %3 = alloca i32, align 4
  call void @llvm.lifetime.start.p0(i64 8, ptr %1) #8
  store ptr null, ptr %1, align 8
  call void @llvm.lifetime.start.p0(i64 8, ptr %2) #8
  %4 = load ptr, ptr @slurmdbd_conf, align 8
  %5 = getelementptr inbounds nuw %struct.slurmdbd_conf_t, ptr %4, i32 0, i32 22
  %6 = load ptr, ptr %5, align 8
  store ptr %6, ptr %2, align 8
  %7 = load ptr, ptr %2, align 8
  %8 = icmp ne ptr %7, null
  br i1 %8, label %11, label %9

9:                                                ; preds = %0
  %10 = call ptr @slurm_xstrdup(ptr noundef @.str.23)
  store ptr %10, ptr %1, align 8
  br label %63

11:                                               ; preds = %0
  call void @llvm.lifetime.start.p0(i64 4, ptr %3) #8
  store i32 0, ptr %3, align 4
  br label %12

12:                                               ; preds = %47, %11
  %13 = load ptr, ptr %2, align 8
  %14 = load i32, ptr %3, align 4
  %15 = sext i32 %14 to i64
  %16 = getelementptr inbounds i8, ptr %13, i64 %15
  %17 = load i8, ptr %16, align 1
  %18 = icmp ne i8 %17, 0
  br i1 %18, label %19, label %50

19:                                               ; preds = %12
  %20 = load ptr, ptr %2, align 8
  %21 = load i32, ptr %3, align 4
  %22 = sext i32 %21 to i64
  %23 = getelementptr inbounds i8, ptr %20, i64 %22
  %24 = load i8, ptr %23, align 1
  %25 = sext i8 %24 to i32
  %26 = icmp eq i32 %25, 46
  br i1 %26, label %35, label %27

27:                                               ; preds = %19
  %28 = load ptr, ptr %2, align 8
  %29 = load i32, ptr %3, align 4
  %30 = sext i32 %29 to i64
  %31 = getelementptr inbounds i8, ptr %28, i64 %30
  %32 = load i8, ptr %31, align 1
  %33 = sext i8 %32 to i32
  %34 = icmp eq i32 %33, 47
  br i1 %34, label %35, label %47

35:                                               ; preds = %27, %19
  br label %36

36:                                               ; preds = %35
  br label %37

37:                                               ; preds = %36
  %38 = call i32 @slurm_get_log_level()
  %39 = icmp sge i32 %38, 5
  br i1 %39, label %40, label %42

40:                                               ; preds = %37
  %41 = load ptr, ptr %2, align 8
  call void (i32, ptr, ...) @slurm_log_var(i32 noundef 5, ptr noundef @.str.24, ptr noundef @plugin_type, ptr noundef @__func__.acct_get_db_name, ptr noundef %41, ptr noundef @.str.23)
  br label %42

42:                                               ; preds = %40, %37
  br label %43

43:                                               ; preds = %42
  br label %44

44:                                               ; preds = %43
  br label %45

45:                                               ; preds = %44
  br label %46

46:                                               ; preds = %45
  br label %50

47:                                               ; preds = %27
  %48 = load i32, ptr %3, align 4
  %49 = add nsw i32 %48, 1
  store i32 %49, ptr %3, align 4
  br label %12, !llvm.loop !18

50:                                               ; preds = %46, %12
  %51 = load ptr, ptr %2, align 8
  %52 = load i32, ptr %3, align 4
  %53 = sext i32 %52 to i64
  %54 = getelementptr inbounds i8, ptr %51, i64 %53
  %55 = load i8, ptr %54, align 1
  %56 = icmp ne i8 %55, 0
  br i1 %56, label %57, label %59

57:                                               ; preds = %50
  %58 = call ptr @slurm_xstrdup(ptr noundef @.str.23)
  store ptr %58, ptr %1, align 8
  br label %62

59:                                               ; preds = %50
  %60 = load ptr, ptr %2, align 8
  %61 = call ptr @slurm_xstrdup(ptr noundef %60)
  store ptr %61, ptr %1, align 8
  br label %62

62:                                               ; preds = %59, %57
  call void @llvm.lifetime.end.p0(i64 4, ptr %3) #8
  br label %63

63:                                               ; preds = %62, %9
  %64 = load ptr, ptr %1, align 8
  call void @llvm.lifetime.end.p0(i64 8, ptr %2) #8
  call void @llvm.lifetime.end.p0(i64 8, ptr %1) #8
  ret ptr %64
}