; Function Attrs: nounwind uwtable
define dso_local ptr @acct_get_db_name() local_unnamed_addr #0 {
  %1 = load ptr, ptr @slurmdbd_conf, align 8
  %2 = getelementptr inbounds nuw i8, ptr %1, i64 144
  %3 = load ptr, ptr %2, align 8
  %.not = icmp eq ptr %3, null
  br i1 %.not, label %13, label %.preheader

.preheader:                                       ; preds = %0, %11
  %indvars.iv = phi i64 [ %indvars.iv.next, %11 ], [ 0, %0 ]
  %4 = getelementptr inbounds nuw i8, ptr %3, i64 %indvars.iv
  %5 = load i8, ptr %4, align 1
  switch i8 %5, label %11 [
    i8 0, label %.thread
    i8 46, label %6
    i8 47, label %6
  ]

6:                                                ; preds = %.preheader, %.preheader
  %7 = getelementptr inbounds nuw i8, ptr %3, i64 %indvars.iv
  %8 = tail call i32 @slurm_get_log_level() #12
  %9 = icmp sgt i32 %8, 4
  br i1 %9, label %10, label %12

10:                                               ; preds = %6
  tail call void (i32, ptr, ...) @slurm_log_var(i32 noundef 5, ptr noundef nonnull @.str.24, ptr noundef nonnull @plugin_type, ptr noundef nonnull @__func__.acct_get_db_name, ptr noundef nonnull %3, ptr noundef nonnull @.str.23) #12
  br label %12

11:                                               ; preds = %.preheader
  %indvars.iv.next = add nuw nsw i64 %indvars.iv, 1
  br label %.preheader, !llvm.loop !17

12:                                               ; preds = %6, %10
  %.pr = load i8, ptr %7, align 1
  %.not17 = icmp eq i8 %.pr, 0
  br i1 %.not17, label %.thread, label %13

.thread:                                          ; preds = %.preheader, %12
  br label %13

13:                                               ; preds = %12, %0, %.thread
  %.str.23.sink = phi ptr [ %3, %.thread ], [ @.str.23, %0 ], [ @.str.23, %12 ]
  %14 = tail call ptr @slurm_xstrdup(ptr noundef nonnull %.str.23.sink) #12
  ret ptr %14
}